target datalayout = "e-m:e-p270:32:32-p271:32:32-p272:64:64-i64:64-i128:128-f80:128-n8:16:32:64-S128"
target triple = "x86_64-pc-linux-gnu"

%class.btConstraintSolverPoolMt = type <{ %class.btConstraintSolver, %class.btAlignedObjectArray, i32, [4 x i8] }>
%class.btConstraintSolver = type { ptr }
%class.btAlignedObjectArray = type <{ [4 x i8], i32, i32, [4 x i8], ptr, i8, [7 x i8] }>
%"struct.btConstraintSolverPoolMt::ThreadSolver" = type { ptr, %class.btSpinMutex, [116 x i8] }
%class.btSpinMutex = type { i32 }

; Function Attrs: inlinehint mustprogress nounwind uwtable
define linkonce_odr dso_local noundef nonnull align 8 dereferenceable(128) ptr @_ZN20btAlignedObjectArrayIN24btConstraintSolverPoolMt12ThreadSolverEEixEi(ptr noundef nonnull align 8 dereferenceable(25) %0, i32 noundef %1) #4 comdat align 2 {
  %3 = alloca ptr, align 8
  %4 = alloca i32, align 4
  store ptr %0, ptr %3, align 8, !tbaa !18
  store i32 %1, ptr %4, align 4, !tbaa !9
  %5 = load ptr, ptr %3, align 8
  %6 = getelementptr inbounds nuw %class.btAlignedObjectArray, ptr %5, i32 0, i32 4
  %7 = load ptr, ptr %6, align 8, !tbaa !20
  %8 = load i32, ptr %4, align 4, !tbaa !9
  %9 = sext i32 %8 to i64
  %10 = getelementptr inbounds %"struct.btConstraintSolverPoolMt::ThreadSolver", ptr %7, i64 %9
  ret ptr %10
}

; Function Attrs: inlinehint mustprogress nounwind uwtable
define linkonce_odr dso_local noundef i32 @_ZNK20btAlignedObjectArrayIN24btConstraintSolverPoolMt12ThreadSolverEE4sizeEv(ptr noundef nonnull align 8 dereferenceable(25) %0) #4 comdat align 2 {
  %2 = alloca ptr, align 8
  store ptr %0, ptr %2, align 8, !tbaa !18
  %3 = load ptr, ptr %2, align 8
  %4 = getelementptr inbounds nuw %class.btAlignedObjectArray, ptr %3, i32 0, i32 1
  %5 = load i32, ptr %4, align 4, !tbaa !24
  ret i32 %5
}

; Function Attrs: mustprogress uwtable
define dso_local void @_ZN24btConstraintSolverPoolMt5resetEv(ptr noundef nonnull align 8 dereferenceable(44) %0) unnamed_addr #2 align 2 {
  %2 = alloca ptr, align 8
  %3 = alloca i32, align 4
  %4 = alloca ptr, align 8
  store ptr %0, ptr %2, align 8, !tbaa !12
  %5 = load ptr, ptr %2, align 8
  call void @llvm.lifetime.start.p0(i64 4, ptr %3) #13
  store i32 0, ptr %3, align 4, !tbaa !9
  br label %6

6:                                                ; preds = %26, %1
  %7 = load i32, ptr %3, align 4, !tbaa !9
  %8 = getelementptr inbounds nuw %class.btConstraintSolverPoolMt, ptr %5, i32 0, i32 1
  %9 = call noundef i32 @_ZNK20btAlignedObjectArrayIN24btConstraintSolverPoolMt12ThreadSolverEE4sizeEv(ptr noundef nonnull align 8 dereferenceable(25) %8)
  %10 = icmp slt i32 %7, %9
  br i1 %10, label %12, label %11

11:                                               ; preds = %6
  call void @llvm.lifetime.end.p0(i64 4, ptr %3) #13
  br label %29

12:                                               ; preds = %6
  call void @llvm.lifetime.start.p0(i64 8, ptr %4) #13
  %13 = getelementptr inbounds nuw %class.btConstraintSolverPoolMt, ptr %5, i32 0, i32 1
  %14 = load i32, ptr %3, align 4, !tbaa !9
  %15 = call noundef nonnull align 8 dereferenceable(128) ptr @_ZN20btAlignedObjectArrayIN24btConstraintSolverPoolMt12ThreadSolverEEixEi(ptr noundef nonnull align 8 dereferenceable(25) %13, i32 noundef %14)
  store ptr %15, ptr %4, align 8, !tbaa !14
  %16 = load ptr, ptr %4, align 8, !tbaa !14
  %17 = getelementptr inbounds nuw %"struct.btConstraintSolverPoolMt::ThreadSolver", ptr %16, i32 0, i32 1
  call void @_ZN11btSpinMutex4lockEv(ptr noundef nonnull align 4 dereferenceable(4) %17)
  %18 = load ptr, ptr %4, align 8, !tbaa !14
  %19 = getelementptr inbounds nuw %"struct.btConstraintSolverPoolMt::ThreadSolver", ptr %18, i32 0, i32 0
  %20 = load ptr, ptr %19, align 8, !tbaa !33
  %21 = load ptr, ptr %20, align 8, !tbaa !37
  %22 = getelementptr inbounds ptr, ptr %21, i64 5
  %23 = load ptr, ptr %22, align 8
  call void %23(ptr noundef nonnull align 8 dereferenceable(8) %20)
  %24 = load ptr, ptr %4, align 8, !tbaa !14
  %25 = getelementptr inbounds nuw %"struct.btConstraintSolverPoolMt::ThreadSolver", ptr %24, i32 0, i32 1
  call void @_ZN11btSpinMutex6unlockEv(ptr noundef nonnull align 4 dereferenceable(4) %25)
  call void @llvm.lifetime.end.p0(i64 8, ptr %4) #13
  br label %26

26:                                               ; preds = %12
  %27 = load i32, ptr %3, align 4, !tbaa !9
  %28 = add nsw i32 %27, 1
  store i32 %28, ptr %3, align 4, !tbaa !9
  br label %6, !llvm.loop !67

29:                                               ; preds = %11
  ret void
}