; Function Attrs: mustprogress uwtable
define dso_local void @_ZN24btConstraintSolverPoolMt5resetEv(ptr noundef nonnull readonly align 8 captures(none) dereferenceable(44) %0) unnamed_addr #0 align 2 {
  %2 = getelementptr inbounds nuw i8, ptr %0, i64 12
  %3 = load i32, ptr %2, align 4, !tbaa !13
  %4 = icmp sgt i32 %3, 0
  br i1 %4, label %.lr.ph, label %._crit_edge

.lr.ph:                                           ; preds = %1
  %5 = getelementptr inbounds nuw i8, ptr %0, i64 24
  br label %6

._crit_edge:                                      ; preds = %6, %1
  ret void

6:                                                ; preds = %.lr.ph, %6
  %indvars.iv = phi i64 [ 0, %.lr.ph ], [ %indvars.iv.next, %6 ]
  %7 = load ptr, ptr %5, align 8, !tbaa !4
  %8 = getelementptr inbounds nuw %"struct.btConstraintSolverPoolMt::ThreadSolver", ptr %7, i64 %indvars.iv
  %9 = getelementptr inbounds nuw i8, ptr %8, i64 8
  tail call void @_ZN11btSpinMutex4lockEv(ptr noundef nonnull align 4 dereferenceable(4) %9)
  %10 = load ptr, ptr %8, align 8, !tbaa !30
  %11 = load ptr, ptr %10, align 8, !tbaa !34
  %12 = getelementptr inbounds nuw i8, ptr %11, i64 40
  %13 = load ptr, ptr %12, align 8
  tail call void %13(ptr noundef nonnull align 8 dereferenceable(8) %10)
  tail call void @_ZN11btSpinMutex6unlockEv(ptr noundef nonnull align 4 dereferenceable(4) %9)
  %indvars.iv.next = add nuw nsw i64 %indvars.iv, 1
  %14 = load i32, ptr %2, align 4, !tbaa !13
  %15 = sext i32 %14 to i64
  %16 = icmp slt i64 %indvars.iv.next, %15
  br i1 %16, label %6, label %._crit_edge, !llvm.loop !46
}